target datalayout = "e-m:e-p270:32:32-p271:32:32-p272:64:64-i64:64-i128:128-f80:128-n8:16:32:64-S128"
target triple = "x86_64-pc-linux-gnu"

; Function Attrs: nounwind uwtable
define internal void @get_block_row(ptr noundef %0, i32 noundef %1, i32 noundef %2, i32 noundef %3, i32 noundef %4, ptr noundef %5) #1 {
  %7 = alloca ptr, align 8
  %8 = alloca i32, align 4
  %9 = alloca i32, align 4
  %10 = alloca i32, align 4
  %11 = alloca i32, align 4
  %12 = alloca ptr, align 8
  %13 = alloca ptr, align 8
  %14 = alloca i32, align 4
  store ptr %0, ptr %7, align 8, !tbaa !91
  store i32 %1, ptr %8, align 4, !tbaa !43
  store i32 %2, ptr %9, align 4, !tbaa !43
  store i32 %3, ptr %10, align 4, !tbaa !43
  store i32 %4, ptr %11, align 4, !tbaa !43
  store ptr %5, ptr %12, align 8, !tbaa !138
  call void @llvm.lifetime.start.p0(i64 8, ptr %13) #12
  %15 = load ptr, ptr %7, align 8, !tbaa !91
  %16 = load i32, ptr %9, align 4, !tbaa !43
  %17 = load i32, ptr %8, align 4, !tbaa !43
  %18 = mul nsw i32 %16, %17
  %19 = sext i32 %18 to i64
  %20 = getelementptr inbounds i8, ptr %15, i64 %19
  %21 = load i32, ptr %10, align 4, !tbaa !43
  %22 = sext i32 %21 to i64
  %23 = getelementptr inbounds i8, ptr %20, i64 %22
  store ptr %23, ptr %13, align 8, !tbaa !91
  call void @llvm.lifetime.start.p0(i64 4, ptr %14) #12
  store i32 0, ptr %14, align 4, !tbaa !43
  br label %24

24:                                               ; preds = %40, %6
  %25 = load i32, ptr %14, align 4, !tbaa !43
  %26 = load i32, ptr %11, align 4, !tbaa !43
  %27 = icmp slt i32 %25, %26
  br i1 %27, label %29, label %28

28:                                               ; preds = %24
  call void @llvm.lifetime.end.p0(i64 4, ptr %14) #12
  br label %43

29:                                               ; preds = %24
  %30 = load ptr, ptr %13, align 8, !tbaa !91
  %31 = load i32, ptr %14, align 4, !tbaa !43
  %32 = sext i32 %31 to i64
  %33 = getelementptr inbounds i8, ptr %30, i64 %32
  %34 = load i8, ptr %33, align 1, !tbaa !207
  %35 = uitofp i8 %34 to float
  %36 = load ptr, ptr %12, align 8, !tbaa !138
  %37 = load i32, ptr %14, align 4, !tbaa !43
  %38 = sext i32 %37 to i64
  %39 = getelementptr inbounds float, ptr %36, i64 %38
  store float %35, ptr %39, align 4, !tbaa !126
  br label %40

40:                                               ; preds = %29
  %41 = load i32, ptr %14, align 4, !tbaa !43
  %42 = add nsw i32 %41, 1
  store i32 %42, ptr %14, align 4, !tbaa !43
  br label %24, !llvm.loop !212

43:                                               ; preds = %28
  call void @llvm.lifetime.end.p0(i64 8, ptr %13) #12
  ret void
}