; Function Attrs: nofree norecurse nosync nounwind memory(argmem: readwrite) uwtable
define internal void @get_block_row(ptr noundef readonly captures(none) %0, i32 noundef %1, i32 noundef %2, i32 noundef %3, i32 noundef %4, ptr noundef writeonly captures(none) %5) #13 {
  %7 = mul nsw i32 %2, %1
  %8 = sext i32 %7 to i64
  %9 = getelementptr inbounds i8, ptr %0, i64 %8
  %10 = sext i32 %3 to i64
  %11 = getelementptr inbounds i8, ptr %9, i64 %10
  %12 = icmp sgt i32 %4, 0
  br i1 %12, label %.lr.ph.preheader, label %._crit_edge

.lr.ph.preheader:                                 ; preds = %6
  %wide.trip.count = zext nneg i32 %4 to i64
  br label %.lr.ph

._crit_edge:                                      ; preds = %.lr.ph, %6
  ret void

.lr.ph:                                           ; preds = %.lr.ph.preheader, %.lr.ph
  %indvars.iv = phi i64 [ 0, %.lr.ph.preheader ], [ %indvars.iv.next, %.lr.ph ]
  %13 = getelementptr inbounds nuw i8, ptr %11, i64 %indvars.iv
  %14 = load i8, ptr %13, align 1, !tbaa !183
  %15 = uitofp i8 %14 to float
  %16 = getelementptr inbounds nuw float, ptr %5, i64 %indvars.iv
  store float %15, ptr %16, align 4, !tbaa !120
  %indvars.iv.next = add nuw nsw i64 %indvars.iv, 1
  %exitcond.not = icmp eq i64 %indvars.iv.next, %wide.trip.count
  br i1 %exitcond.not, label %._crit_edge, label %.lr.ph, !llvm.loop !188
}